target datalayout = "e-m:e-p270:32:32-p271:32:32-p272:64:64-i64:64-i128:128-f80:128-n8:16:32:64-S128"
target triple = "x86_64-pc-linux-gnu"

%struct.H5T_conv_func_t = type { i8, %union.anon.14 }
%union.anon.14 = type { ptr }
%struct.H5T_path_t = type { [32 x i8], ptr, ptr, %struct.H5T_conv_func_t, i8, i8, %struct.H5T_cdata_t }
%struct.H5T_cdata_t = type { i32, i32, i8, ptr }

@.str.2 = private unnamed_addr constant [97 x i8] c"generated/home/dtcxzyw/WorkSpace/Projects/compilers/llvm-opt-benchmark/bench/hdf5/hdf5/src/H5T.c\00", align 1
@H5E_DATATYPE_g = external global i64, align 8
@H5E_CANTINIT_g = external global i64, align 8
@H5E_ARGS_g = external global i64, align 8
@H5E_BADTYPE_g = external global i64, align 8
@H5_libinit_g = external global i8, align 1
@H5_libterm_g = external global i8, align 1
@H5E_FUNC_g = external global i64, align 8
@.str.221 = private unnamed_addr constant [30 x i8] c"library initialization failed\00", align 1
@H5E_CANTSET_g = external global i64, align 8
@.str.222 = private unnamed_addr constant [22 x i8] c"can't set API context\00", align 1
@H5E_BADVALUE_g = external global i64, align 8
@H5E_CANTGET_g = external global i64, align 8
@.str.261 = private unnamed_addr constant [16 x i8] c"not a data type\00", align 1
@__func__.H5Tfind = private unnamed_addr constant [8 x i8] c"H5Tfind\00", align 1
@.str.268 = private unnamed_addr constant [36 x i8] c"no address to receive cdata pointer\00", align 1
@H5E_NOTFOUND_g = external global i64, align 8
@.str.269 = private unnamed_addr constant [30 x i8] c"conversion function not found\00", align 1
@__func__.H5T_path_find = private unnamed_addr constant [14 x i8] c"H5T_path_find\00", align 1
@.str.317 = private unnamed_addr constant [36 x i8] c"can't find datatype conversion path\00", align 1

; Function Attrs: nounwind uwtable
define ptr @H5T_path_find(ptr noundef %0, ptr noundef %1) #0 {
  %3 = alloca ptr, align 8
  %4 = alloca ptr, align 8
  %5 = alloca %struct.H5T_conv_func_t, align 8
  %6 = alloca ptr, align 8
  %7 = alloca i8, align 1
  store ptr %0, ptr %3, align 8
  store ptr %1, ptr %4, align 8
  store ptr null, ptr %6, align 8
  store i8 0, ptr %7, align 1
  %8 = getelementptr inbounds %struct.H5T_conv_func_t, ptr %5, i32 0, i32 0
  store i8 0, ptr %8, align 8
  %9 = getelementptr inbounds %struct.H5T_conv_func_t, ptr %5, i32 0, i32 1
  store ptr null, ptr %9, align 8
  %10 = load ptr, ptr %3, align 8
  %11 = load ptr, ptr %4, align 8
  %12 = call ptr @H5T__path_find_real(ptr noundef %10, ptr noundef %11, ptr noundef null, ptr noundef %5)
  store ptr %12, ptr %6, align 8
  %13 = icmp eq ptr null, %12
  br i1 %13, label %14, label %29

14:                                               ; preds = %2
  br label %15

15:                                               ; preds = %14
  br label %16

16:                                               ; preds = %15
  br label %17

17:                                               ; preds = %16
  %18 = load i64, ptr @H5E_DATATYPE_g, align 8
  %19 = load i64, ptr @H5E_CANTGET_g, align 8
  %20 = call i32 (ptr, ptr, i32, i64, i64, ptr, ...) @H5E_printf_stack(ptr noundef @.str.2, ptr noundef @__func__.H5T_path_find, i32 noundef 5066, i64 noundef %18, i64 noundef %19, ptr noundef @.str.317)
  br label %21

21:                                               ; preds = %17
  store i8 1, ptr %7, align 1
  %22 = load i8, ptr %7, align 1
  %23 = trunc i8 %22 to i1
  %24 = zext i1 %23 to i8
  store i8 %24, ptr %7, align 1
  br label %25

25:                                               ; preds = %21
  br label %26

26:                                               ; preds = %25
  store ptr null, ptr %6, align 8
  br label %30

27:                                               ; No predecessors!
  br label %28

28:                                               ; preds = %27
  br label %29

29:                                               ; preds = %28, %2
  br label %30

30:                                               ; preds = %29, %26
  %31 = load ptr, ptr %6, align 8
  ret ptr %31
}

; Function Attrs: nounwind uwtable
define ptr @H5Tfind(i64 noundef %0, i64 noundef %1, ptr noundef %2) #0 {
  %4 = alloca i64, align 8
  %5 = alloca i64, align 8
  %6 = alloca ptr, align 8
  %7 = alloca ptr, align 8
  %8 = alloca ptr, align 8
  %9 = alloca ptr, align 8
  %10 = alloca ptr, align 8
  %11 = alloca i8, align 1
  %12 = alloca i8, align 1
  store i64 %0, ptr %4, align 8
  store i64 %1, ptr %5, align 8
  store ptr %2, ptr %6, align 8
  store i8 0, ptr %11, align 1
  store i8 0, ptr %12, align 1
  %13 = load i8, ptr @H5_libinit_g, align 1
  %14 = trunc i8 %13 to i1
  br i1 %14, label %19, label %15

15:                                               ; preds = %3
  %16 = load i8, ptr @H5_libterm_g, align 1
  %17 = trunc i8 %16 to i1
  %18 = xor i1 %17, true
  br label %19

19:                                               ; preds = %15, %3
  %20 = phi i1 [ false, %3 ], [ %18, %15 ]
  %21 = xor i1 %20, true
  %22 = xor i1 %21, true
  %23 = zext i1 %22 to i32
  %24 = sext i32 %23 to i64
  %25 = icmp ne i64 %24, 0
  br i1 %25, label %26, label %50

26:                                               ; preds = %19
  %27 = call i32 @H5_init_library()
  %28 = icmp slt i32 %27, 0
  %29 = xor i1 %28, true
  %30 = xor i1 %29, true
  %31 = zext i1 %30 to i32
  %32 = sext i32 %31 to i64
  %33 = icmp ne i64 %32, 0
  br i1 %33, label %34, label %49

34:                                               ; preds = %26
  br label %35

35:                                               ; preds = %34
  br label %36

36:                                               ; preds = %35
  br label %37

37:                                               ; preds = %36
  %38 = load i64, ptr @H5E_FUNC_g, align 8
  %39 = load i64, ptr @H5E_CANTINIT_g, align 8
  %40 = call i32 (ptr, ptr, i32, i64, i64, ptr, ...) @H5E_printf_stack(ptr noundef @.str.2, ptr noundef @__func__.H5Tfind, i32 noundef 3013, i64 noundef %38, i64 noundef %39, ptr noundef @.str.221)
  br label %41

41:                                               ; preds = %37
  store i8 1, ptr %12, align 1
  %42 = load i8, ptr %12, align 1
  %43 = trunc i8 %42 to i1
  %44 = zext i1 %43 to i8
  store i8 %44, ptr %12, align 1
  br label %45

45:                                               ; preds = %41
  br label %46

46:                                               ; preds = %45
  store ptr null, ptr %10, align 8
  br label %148

47:                                               ; No predecessors!
  br label %48

48:                                               ; preds = %47
  br label %49

49:                                               ; preds = %48, %26
  br label %50

50:                                               ; preds = %49, %19
  %51 = call i32 @H5CX_push()
  %52 = icmp slt i32 %51, 0
  %53 = xor i1 %52, true
  %54 = xor i1 %53, true
  %55 = zext i1 %54 to i32
  %56 = sext i32 %55 to i64
  %57 = icmp ne i64 %56, 0
  br i1 %57, label %58, label %73

58:                                               ; preds = %50
  br label %59

59:                                               ; preds = %58
  br label %60

60:                                               ; preds = %59
  br label %61

61:                                               ; preds = %60
  %62 = load i64, ptr @H5E_FUNC_g, align 8
  %63 = load i64, ptr @H5E_CANTSET_g, align 8
  %64 = call i32 (ptr, ptr, i32, i64, i64, ptr, ...) @H5E_printf_stack(ptr noundef @.str.2, ptr noundef @__func__.H5Tfind, i32 noundef 3013, i64 noundef %62, i64 noundef %63, ptr noundef @.str.222)
  br label %65

65:                                               ; preds = %61
  store i8 1, ptr %12, align 1
  %66 = load i8, ptr %12, align 1
  %67 = trunc i8 %66 to i1
  %68 = zext i1 %67 to i8
  store i8 %68, ptr %12, align 1
  br label %69

69:                                               ; preds = %65
  br label %70

70:                                               ; preds = %69
  store ptr null, ptr %10, align 8
  br label %148

71:                                               ; No predecessors!
  br label %72

72:                                               ; preds = %71
  br label %74

73:                                               ; preds = %50
  store i8 1, ptr %11, align 1
  br label %74

74:                                               ; preds = %73, %72
  %75 = call i32 @H5E_clear_stack()
  %76 = load i64, ptr %4, align 8
  %77 = call ptr @H5I_object_verify(i64 noundef %76, i32 noundef 3)
  store ptr %77, ptr %7, align 8
  %78 = icmp eq ptr null, %77
  br i1 %78, label %83, label %79

79:                                               ; preds = %74
  %80 = load i64, ptr %5, align 8
  %81 = call ptr @H5I_object_verify(i64 noundef %80, i32 noundef 3)
  store ptr %81, ptr %8, align 8
  %82 = icmp eq ptr null, %81
  br i1 %82, label %83, label %98

83:                                               ; preds = %79, %74
  br label %84

84:                                               ; preds = %83
  br label %85

85:                                               ; preds = %84
  br label %86

86:                                               ; preds = %85
  %87 = load i64, ptr @H5E_ARGS_g, align 8
  %88 = load i64, ptr @H5E_BADTYPE_g, align 8
  %89 = call i32 (ptr, ptr, i32, i64, i64, ptr, ...) @H5E_printf_stack(ptr noundef @.str.2, ptr noundef @__func__.H5Tfind, i32 noundef 3018, i64 noundef %87, i64 noundef %88, ptr noundef @.str.261)
  br label %90

90:                                               ; preds = %86
  store i8 1, ptr %12, align 1
  %91 = load i8, ptr %12, align 1
  %92 = trunc i8 %91 to i1
  %93 = zext i1 %92 to i8
  store i8 %93, ptr %12, align 1
  br label %94

94:                                               ; preds = %90
  br label %95

95:                                               ; preds = %94
  store ptr null, ptr %10, align 8
  br label %148

96:                                               ; No predecessors!
  br label %97

97:                                               ; preds = %96
  br label %98

98:                                               ; preds = %97, %79
  %99 = load ptr, ptr %6, align 8
  %100 = icmp ne ptr %99, null
  br i1 %100, label %116, label %101

101:                                              ; preds = %98
  br label %102

102:                                              ; preds = %101
  br label %103

103:                                              ; preds = %102
  br label %104

104:                                              ; preds = %103
  %105 = load i64, ptr @H5E_ARGS_g, align 8
  %106 = load i64, ptr @H5E_BADVALUE_g, align 8
  %107 = call i32 (ptr, ptr, i32, i64, i64, ptr, ...) @H5E_printf_stack(ptr noundef @.str.2, ptr noundef @__func__.H5Tfind, i32 noundef 3020, i64 noundef %105, i64 noundef %106, ptr noundef @.str.268)
  br label %108

108:                                              ; preds = %104
  store i8 1, ptr %12, align 1
  %109 = load i8, ptr %12, align 1
  %110 = trunc i8 %109 to i1
  %111 = zext i1 %110 to i8
  store i8 %111, ptr %12, align 1
  br label %112

112:                                              ; preds = %108
  br label %113

113:                                              ; preds = %112
  store ptr null, ptr %10, align 8
  br label %148

114:                                              ; No predecessors!
  br label %115

115:                                              ; preds = %114
  br label %116

116:                                              ; preds = %115, %98
  %117 = load ptr, ptr %7, align 8
  %118 = load ptr, ptr %8, align 8
  %119 = call ptr @H5T_path_find(ptr noundef %117, ptr noundef %118)
  store ptr %119, ptr %9, align 8
  %120 = icmp eq ptr null, %119
  br i1 %120, label %121, label %136

121:                                              ; preds = %116
  br label %122

122:                                              ; preds = %121
  br label %123

123:                                              ; preds = %122
  br label %124

124:                                              ; preds = %123
  %125 = load i64, ptr @H5E_DATATYPE_g, align 8
  %126 = load i64, ptr @H5E_NOTFOUND_g, align 8
  %127 = call i32 (ptr, ptr, i32, i64, i64, ptr, ...) @H5E_printf_stack(ptr noundef @.str.2, ptr noundef @__func__.H5Tfind, i32 noundef 3024, i64 noundef %125, i64 noundef %126, ptr noundef @.str.269)
  br label %128

128:                                              ; preds = %124
  store i8 1, ptr %12, align 1
  %129 = load i8, ptr %12, align 1
  %130 = trunc i8 %129 to i1
  %131 = zext i1 %130 to i8
  store i8 %131, ptr %12, align 1
  br label %132

132:                                              ; preds = %128
  br label %133

133:                                              ; preds = %132
  store ptr null, ptr %10, align 8
  br label %148

134:                                              ; No predecessors!
  br label %135

135:                                              ; preds = %134
  br label %136

136:                                              ; preds = %135, %116
  %137 = load ptr, ptr %6, align 8
  %138 = icmp ne ptr %137, null
  br i1 %138, label %139, label %143

139:                                              ; preds = %136
  %140 = load ptr, ptr %9, align 8
  %141 = getelementptr inbounds %struct.H5T_path_t, ptr %140, i32 0, i32 6
  %142 = load ptr, ptr %6, align 8
  store ptr %141, ptr %142, align 8
  br label %143

143:                                              ; preds = %139, %136
  %144 = load ptr, ptr %9, align 8
  %145 = getelementptr inbounds %struct.H5T_path_t, ptr %144, i32 0, i32 3
  %146 = getelementptr inbounds %struct.H5T_conv_func_t, ptr %145, i32 0, i32 1
  %147 = load ptr, ptr %146, align 8
  store ptr %147, ptr %10, align 8
  br label %148

148:                                              ; preds = %143, %133, %113, %95, %70, %46
  %149 = load i8, ptr %11, align 1
  %150 = trunc i8 %149 to i1
  %151 = xor i1 %150, true
  %152 = xor i1 %151, true
  %153 = zext i1 %152 to i32
  %154 = sext i32 %153 to i64
  %155 = icmp ne i64 %154, 0
  br i1 %155, label %156, label %158

156:                                              ; preds = %148
  %157 = call i32 @H5CX_pop(i1 noundef zeroext true)
  store i8 0, ptr %11, align 1
  br label %158

158:                                              ; preds = %156, %148
  %159 = load i8, ptr %12, align 1
  %160 = trunc i8 %159 to i1
  %161 = xor i1 %160, true
  %162 = xor i1 %161, true
  %163 = zext i1 %162 to i32
  %164 = sext i32 %163 to i64
  %165 = icmp ne i64 %164, 0
  br i1 %165, label %166, label %168

166:                                              ; preds = %158
  %167 = call i32 @H5E_dump_api_stack()
  br label %168

168:                                              ; preds = %166, %158
  %169 = load ptr, ptr %10, align 8
  ret ptr %169
}