; Function Attrs: nounwind uwtable
define ptr @H5Tfind(i64 noundef %0, i64 noundef %1, ptr noundef writeonly %2) local_unnamed_addr #0 {
  %4 = alloca %struct.H5T_conv_func_t, align 8
  %5 = load i8, ptr @H5_libinit_g, align 1
  %6 = trunc i8 %5 to i1
  %7 = load i8, ptr @H5_libterm_g, align 1
  %8 = trunc i8 %7 to i1
  %9 = select i1 %6, i1 true, i1 %8
  br i1 %9, label %17, label %10

10:                                               ; preds = %3
  %11 = tail call i32 @H5_init_library() #17
  %12 = icmp slt i32 %11, 0
  br i1 %12, label %13, label %17

13:                                               ; preds = %10
  %14 = load i64, ptr @H5E_FUNC_g, align 8
  %15 = load i64, ptr @H5E_CANTINIT_g, align 8
  %16 = tail call i32 (ptr, ptr, i32, i64, i64, ptr, ...) @H5E_printf_stack(ptr noundef nonnull @.str.2, ptr noundef nonnull @__func__.H5Tfind, i32 noundef 3013, i64 noundef %14, i64 noundef %15, ptr noundef nonnull @.str.221) #17
  br label %.thread30

17:                                               ; preds = %10, %3
  %18 = tail call i32 @H5CX_push() #17
  %19 = icmp slt i32 %18, 0
  br i1 %19, label %20, label %24

20:                                               ; preds = %17
  %21 = load i64, ptr @H5E_FUNC_g, align 8
  %22 = load i64, ptr @H5E_CANTSET_g, align 8
  %23 = tail call i32 (ptr, ptr, i32, i64, i64, ptr, ...) @H5E_printf_stack(ptr noundef nonnull @.str.2, ptr noundef nonnull @__func__.H5Tfind, i32 noundef 3013, i64 noundef %21, i64 noundef %22, ptr noundef nonnull @.str.222) #17
  br label %.thread30

24:                                               ; preds = %17
  %25 = tail call i32 @H5E_clear_stack() #17
  %26 = tail call ptr @H5I_object_verify(i64 noundef %0, i32 noundef 3) #17
  %27 = icmp eq ptr %26, null
  br i1 %27, label %31, label %28

28:                                               ; preds = %24
  %29 = tail call ptr @H5I_object_verify(i64 noundef %1, i32 noundef 3) #17
  %30 = icmp eq ptr %29, null
  br i1 %30, label %31, label %35

31:                                               ; preds = %24, %28
  %32 = load i64, ptr @H5E_ARGS_g, align 8
  %33 = load i64, ptr @H5E_BADTYPE_g, align 8
  %34 = tail call i32 (ptr, ptr, i32, i64, i64, ptr, ...) @H5E_printf_stack(ptr noundef nonnull @.str.2, ptr noundef nonnull @__func__.H5Tfind, i32 noundef 3018, i64 noundef %32, i64 noundef %33, ptr noundef nonnull @.str.261) #17
  br label %.thread36

35:                                               ; preds = %28
  %.not = icmp eq ptr %2, null
  br i1 %.not, label %36, label %40

36:                                               ; preds = %35
  %37 = load i64, ptr @H5E_ARGS_g, align 8
  %38 = load i64, ptr @H5E_BADVALUE_g, align 8
  %39 = tail call i32 (ptr, ptr, i32, i64, i64, ptr, ...) @H5E_printf_stack(ptr noundef nonnull @.str.2, ptr noundef nonnull @__func__.H5Tfind, i32 noundef 3020, i64 noundef %37, i64 noundef %38, ptr noundef nonnull @.str.268) #17
  br label %.thread36

40:                                               ; preds = %35
  call void @llvm.lifetime.start.p0(i64 16, ptr nonnull %4)
  store i8 0, ptr %4, align 8
  %41 = getelementptr inbounds i8, ptr %4, i64 8
  store ptr null, ptr %41, align 8
  %42 = call fastcc ptr @H5T__path_find_real(ptr noundef nonnull %26, ptr noundef nonnull %29, ptr noundef null, ptr noundef nonnull %4)
  %43 = icmp eq ptr %42, null
  br i1 %43, label %44, label %52

44:                                               ; preds = %40
  %45 = load i64, ptr @H5E_DATATYPE_g, align 8
  %46 = load i64, ptr @H5E_CANTGET_g, align 8
  %47 = tail call i32 (ptr, ptr, i32, i64, i64, ptr, ...) @H5E_printf_stack(ptr noundef nonnull @.str.2, ptr noundef nonnull @__func__.H5T_path_find, i32 noundef 5066, i64 noundef %45, i64 noundef %46, ptr noundef nonnull @.str.317) #17
  call void @llvm.lifetime.end.p0(i64 16, ptr nonnull %4)
  %48 = load i64, ptr @H5E_DATATYPE_g, align 8
  %49 = load i64, ptr @H5E_NOTFOUND_g, align 8
  %50 = tail call i32 (ptr, ptr, i32, i64, i64, ptr, ...) @H5E_printf_stack(ptr noundef nonnull @.str.2, ptr noundef nonnull @__func__.H5Tfind, i32 noundef 3024, i64 noundef %48, i64 noundef %49, ptr noundef nonnull @.str.269) #17
  br label %.thread36

.thread36:                                        ; preds = %36, %44, %31
  %51 = tail call i32 @H5CX_pop(i1 noundef zeroext true) #17
  br label %.thread30

52:                                               ; preds = %40
  call void @llvm.lifetime.end.p0(i64 16, ptr nonnull %4)
  %53 = getelementptr inbounds i8, ptr %42, i64 72
  store ptr %53, ptr %2, align 8
  %54 = getelementptr inbounds i8, ptr %42, i64 56
  %55 = load ptr, ptr %54, align 8
  %56 = tail call i32 @H5CX_pop(i1 noundef zeroext true) #17
  br label %58

.thread30:                                        ; preds = %20, %13, %.thread36
  %57 = tail call i32 @H5E_dump_api_stack() #17
  br label %58

58:                                               ; preds = %52, %.thread30
  %.0172533 = phi ptr [ null, %.thread30 ], [ %55, %52 ]
  ret ptr %.0172533
}